target datalayout = "e-m:e-p270:32:32-p271:32:32-p272:64:64-i64:64-i128:128-f80:128-n8:16:32:64-S128"
target triple = "x86_64-pc-linux-gnu"

%struct.Vec_Int_t_ = type { i32, i32, ptr }
%struct.Vec_Ptr_t_ = type { i32, i32, ptr }
%struct.Psr_Ntk_t_ = type { i32, i8, ptr, %struct.Vec_Int_t_, %struct.Vec_Int_t_, %struct.Vec_Int_t_, %struct.Vec_Int_t_, %struct.Vec_Int_t_, %struct.Vec_Int_t_, %struct.Vec_Int_t_, %struct.Vec_Int_t_, %struct.Vec_Int_t_, %struct.Vec_Int_t_, %struct.Vec_Int_t_, %struct.Vec_Int_t_, %struct.Vec_Int_t_ }
%struct.timespec = type { i64, i64 }

@.str = private unnamed_addr constant [33 x i8] c"c/hie/dump/1/netlist_1_out8.blif\00", align 1
@.str.1 = private unnamed_addr constant [31 x i8] c"Finished reading %d networks. \00", align 1
@.str.2 = private unnamed_addr constant [15 x i8] c"NameIDs = %d. \00", align 1
@.str.3 = private unnamed_addr constant [19 x i8] c"Memory = %.2f MB. \00", align 1
@.str.4 = private unnamed_addr constant [5 x i8] c"Time\00", align 1
@.str.5 = private unnamed_addr constant [37 x i8] c"c/hie/dump/1/netlist_1_out8_out.blif\00", align 1
@.str.55 = private unnamed_addr constant [5 x i8] c"%s =\00", align 1
@.str.56 = private unnamed_addr constant [11 x i8] c"%9.2f sec\0A\00", align 1

; Function Attrs: inlinehint nounwind uwtable
define internal double @Vec_IntMemory(ptr noundef %0) #2 {
  %2 = alloca ptr, align 8
  store ptr %0, ptr %2, align 8, !tbaa !56
  %3 = load ptr, ptr %2, align 8, !tbaa !56
  %4 = icmp ne ptr %3, null
  br i1 %4, label %6, label %5

5:                                                ; preds = %1
  br label %13

6:                                                ; preds = %1
  %7 = load ptr, ptr %2, align 8, !tbaa !56
  %8 = getelementptr inbounds nuw %struct.Vec_Int_t_, ptr %7, i32 0, i32 0
  %9 = load i32, ptr %8, align 8, !tbaa !64
  %10 = sext i32 %9 to i64
  %11 = uitofp i64 %10 to double
  %12 = call double @llvm.fmuladd.f64(double 4.000000e+00, double %11, double 1.600000e+01)
  br label %13

13:                                               ; preds = %6, %5
  %14 = phi double [ 0.000000e+00, %5 ], [ %12, %6 ]
  ret double %14
}

; Function Attrs: inlinehint nounwind uwtable
define internal ptr @Psr_ManNtk(ptr noundef %0, i32 noundef %1) #2 {
  %3 = alloca ptr, align 8
  %4 = alloca i32, align 4
  store ptr %0, ptr %3, align 8, !tbaa !8
  store i32 %1, ptr %4, align 4, !tbaa !25
  %5 = load i32, ptr %4, align 4, !tbaa !25
  %6 = icmp sge i32 %5, 0
  br i1 %6, label %7, label %16

7:                                                ; preds = %2
  %8 = load i32, ptr %4, align 4, !tbaa !25
  %9 = load ptr, ptr %3, align 8, !tbaa !8
  %10 = call i32 @Vec_PtrSize(ptr noundef %9)
  %11 = icmp slt i32 %8, %10
  br i1 %11, label %12, label %16

12:                                               ; preds = %7
  %13 = load ptr, ptr %3, align 8, !tbaa !8
  %14 = load i32, ptr %4, align 4, !tbaa !25
  %15 = call ptr @Vec_PtrEntry(ptr noundef %13, i32 noundef %14)
  br label %17

16:                                               ; preds = %7, %2
  br label %17

17:                                               ; preds = %16, %12
  %18 = phi ptr [ %15, %12 ], [ null, %16 ]
  ret ptr %18
}

; Function Attrs: inlinehint nounwind uwtable
define internal i32 @Psr_NtkMemory(ptr noundef %0) #2 {
  %2 = alloca ptr, align 8
  %3 = alloca i32, align 4
  store ptr %0, ptr %2, align 8, !tbaa !37
  call void @llvm.lifetime.start.p0(i64 4, ptr %3) #11
  store i32 224, ptr %3, align 4, !tbaa !25
  %4 = load ptr, ptr %2, align 8, !tbaa !37
  %5 = getelementptr inbounds nuw %struct.Psr_Ntk_t_, ptr %4, i32 0, i32 3
  %6 = call double @Vec_IntMemory(ptr noundef %5)
  %7 = load i32, ptr %3, align 4, !tbaa !25
  %8 = sitofp i32 %7 to double
  %9 = fadd double %8, %6
  %10 = fptosi double %9 to i32
  store i32 %10, ptr %3, align 4, !tbaa !25
  %11 = load ptr, ptr %2, align 8, !tbaa !37
  %12 = getelementptr inbounds nuw %struct.Psr_Ntk_t_, ptr %11, i32 0, i32 4
  %13 = call double @Vec_IntMemory(ptr noundef %12)
  %14 = load i32, ptr %3, align 4, !tbaa !25
  %15 = sitofp i32 %14 to double
  %16 = fadd double %15, %13
  %17 = fptosi double %16 to i32
  store i32 %17, ptr %3, align 4, !tbaa !25
  %18 = load ptr, ptr %2, align 8, !tbaa !37
  %19 = getelementptr inbounds nuw %struct.Psr_Ntk_t_, ptr %18, i32 0, i32 5
  %20 = call double @Vec_IntMemory(ptr noundef %19)
  %21 = load i32, ptr %3, align 4, !tbaa !25
  %22 = sitofp i32 %21 to double
  %23 = fadd double %22, %20
  %24 = fptosi double %23 to i32
  store i32 %24, ptr %3, align 4, !tbaa !25
  %25 = load ptr, ptr %2, align 8, !tbaa !37
  %26 = getelementptr inbounds nuw %struct.Psr_Ntk_t_, ptr %25, i32 0, i32 6
  %27 = call double @Vec_IntMemory(ptr noundef %26)
  %28 = load i32, ptr %3, align 4, !tbaa !25
  %29 = sitofp i32 %28 to double
  %30 = fadd double %29, %27
  %31 = fptosi double %30 to i32
  store i32 %31, ptr %3, align 4, !tbaa !25
  %32 = load ptr, ptr %2, align 8, !tbaa !37
  %33 = getelementptr inbounds nuw %struct.Psr_Ntk_t_, ptr %32, i32 0, i32 7
  %34 = call double @Vec_IntMemory(ptr noundef %33)
  %35 = load i32, ptr %3, align 4, !tbaa !25
  %36 = sitofp i32 %35 to double
  %37 = fadd double %36, %34
  %38 = fptosi double %37 to i32
  store i32 %38, ptr %3, align 4, !tbaa !25
  %39 = load ptr, ptr %2, align 8, !tbaa !37
  %40 = getelementptr inbounds nuw %struct.Psr_Ntk_t_, ptr %39, i32 0, i32 8
  %41 = call double @Vec_IntMemory(ptr noundef %40)
  %42 = load i32, ptr %3, align 4, !tbaa !25
  %43 = sitofp i32 %42 to double
  %44 = fadd double %43, %41
  %45 = fptosi double %44 to i32
  store i32 %45, ptr %3, align 4, !tbaa !25
  %46 = load ptr, ptr %2, align 8, !tbaa !37
  %47 = getelementptr inbounds nuw %struct.Psr_Ntk_t_, ptr %46, i32 0, i32 9
  %48 = call double @Vec_IntMemory(ptr noundef %47)
  %49 = load i32, ptr %3, align 4, !tbaa !25
  %50 = sitofp i32 %49 to double
  %51 = fadd double %50, %48
  %52 = fptosi double %51 to i32
  store i32 %52, ptr %3, align 4, !tbaa !25
  %53 = load ptr, ptr %2, align 8, !tbaa !37
  %54 = getelementptr inbounds nuw %struct.Psr_Ntk_t_, ptr %53, i32 0, i32 10
  %55 = call double @Vec_IntMemory(ptr noundef %54)
  %56 = load i32, ptr %3, align 4, !tbaa !25
  %57 = sitofp i32 %56 to double
  %58 = fadd double %57, %55
  %59 = fptosi double %58 to i32
  store i32 %59, ptr %3, align 4, !tbaa !25
  %60 = load ptr, ptr %2, align 8, !tbaa !37
  %61 = getelementptr inbounds nuw %struct.Psr_Ntk_t_, ptr %60, i32 0, i32 11
  %62 = call double @Vec_IntMemory(ptr noundef %61)
  %63 = load i32, ptr %3, align 4, !tbaa !25
  %64 = sitofp i32 %63 to double
  %65 = fadd double %64, %62
  %66 = fptosi double %65 to i32
  store i32 %66, ptr %3, align 4, !tbaa !25
  %67 = load ptr, ptr %2, align 8, !tbaa !37
  %68 = getelementptr inbounds nuw %struct.Psr_Ntk_t_, ptr %67, i32 0, i32 12
  %69 = call double @Vec_IntMemory(ptr noundef %68)
  %70 = load i32, ptr %3, align 4, !tbaa !25
  %71 = sitofp i32 %70 to double
  %72 = fadd double %71, %69
  %73 = fptosi double %72 to i32
  store i32 %73, ptr %3, align 4, !tbaa !25
  %74 = load ptr, ptr %2, align 8, !tbaa !37
  %75 = getelementptr inbounds nuw %struct.Psr_Ntk_t_, ptr %74, i32 0, i32 14
  %76 = call double @Vec_IntMemory(ptr noundef %75)
  %77 = load i32, ptr %3, align 4, !tbaa !25
  %78 = sitofp i32 %77 to double
  %79 = fadd double %78, %76
  %80 = fptosi double %79 to i32
  store i32 %80, ptr %3, align 4, !tbaa !25
  %81 = load ptr, ptr %2, align 8, !tbaa !37
  %82 = getelementptr inbounds nuw %struct.Psr_Ntk_t_, ptr %81, i32 0, i32 13
  %83 = call double @Vec_IntMemory(ptr noundef %82)
  %84 = load i32, ptr %3, align 4, !tbaa !25
  %85 = sitofp i32 %84 to double
  %86 = fadd double %85, %83
  %87 = fptosi double %86 to i32
  store i32 %87, ptr %3, align 4, !tbaa !25
  %88 = load i32, ptr %3, align 4, !tbaa !25
  call void @llvm.lifetime.end.p0(i64 4, ptr %3) #11
  ret i32 %88
}

; Function Attrs: inlinehint nounwind uwtable
define internal ptr @Vec_PtrEntry(ptr noundef %0, i32 noundef %1) #2 {
  %3 = alloca ptr, align 8
  %4 = alloca i32, align 4
  store ptr %0, ptr %3, align 8, !tbaa !8
  store i32 %1, ptr %4, align 4, !tbaa !25
  %5 = load ptr, ptr %3, align 8, !tbaa !8
  %6 = getelementptr inbounds nuw %struct.Vec_Ptr_t_, ptr %5, i32 0, i32 2
  %7 = load ptr, ptr %6, align 8, !tbaa !45
  %8 = load i32, ptr %4, align 4, !tbaa !25
  %9 = sext i32 %8 to i64
  %10 = getelementptr inbounds ptr, ptr %7, i64 %9
  %11 = load ptr, ptr %10, align 8, !tbaa !61
  ret ptr %11
}

; Function Attrs: inlinehint nounwind uwtable
define internal double @Vec_PtrMemory(ptr noundef %0) #2 {
  %2 = alloca ptr, align 8
  store ptr %0, ptr %2, align 8, !tbaa !8
  %3 = load ptr, ptr %2, align 8, !tbaa !8
  %4 = icmp ne ptr %3, null
  br i1 %4, label %6, label %5

5:                                                ; preds = %1
  br label %13

6:                                                ; preds = %1
  %7 = load ptr, ptr %2, align 8, !tbaa !8
  %8 = getelementptr inbounds nuw %struct.Vec_Ptr_t_, ptr %7, i32 0, i32 0
  %9 = load i32, ptr %8, align 8, !tbaa !44
  %10 = sext i32 %9 to i64
  %11 = uitofp i64 %10 to double
  %12 = call double @llvm.fmuladd.f64(double 8.000000e+00, double %11, double 1.600000e+01)
  br label %13

13:                                               ; preds = %6, %5
  %14 = phi double [ 0.000000e+00, %5 ], [ %12, %6 ]
  ret double %14
}

; Function Attrs: inlinehint nounwind uwtable
define internal ptr @Psr_ManRoot(ptr noundef %0) #2 {
  %2 = alloca ptr, align 8
  store ptr %0, ptr %2, align 8, !tbaa !8
  %3 = load ptr, ptr %2, align 8, !tbaa !8
  %4 = call ptr @Psr_ManNtk(ptr noundef %3, i32 noundef 0)
  ret ptr %4
}

; Function Attrs: inlinehint nounwind uwtable
define internal void @Abc_PrintTime(i32 noundef %0, ptr noundef %1, i64 noundef %2) #2 {
  %4 = alloca i32, align 4
  %5 = alloca ptr, align 8
  %6 = alloca i64, align 8
  store i32 %0, ptr %4, align 4, !tbaa !25
  store ptr %1, ptr %5, align 8, !tbaa !3
  store i64 %2, ptr %6, align 8, !tbaa !31
  %7 = load ptr, ptr %5, align 8, !tbaa !3
  call void (i32, ptr, ...) @Abc_Print(i32 noundef 1, ptr noundef @.str.55, ptr noundef %7)
  %8 = load i64, ptr %6, align 8, !tbaa !31
  %9 = sitofp i64 %8 to double
  %10 = fmul double 1.000000e+00, %9
  %11 = fdiv double %10, 1.000000e+06
  call void (i32, ptr, ...) @Abc_Print(i32 noundef 1, ptr noundef @.str.56, double noundef %11)
  ret void
}

; Function Attrs: inlinehint nounwind uwtable
define internal i32 @Psr_ManMemory(ptr noundef %0) #2 {
  %2 = alloca ptr, align 8
  %3 = alloca ptr, align 8
  %4 = alloca i32, align 4
  %5 = alloca i32, align 4
  store ptr %0, ptr %2, align 8, !tbaa !8
  call void @llvm.lifetime.start.p0(i64 8, ptr %3) #11
  call void @llvm.lifetime.start.p0(i64 4, ptr %4) #11
  call void @llvm.lifetime.start.p0(i64 4, ptr %5) #11
  %6 = load ptr, ptr %2, align 8, !tbaa !8
  %7 = call double @Vec_PtrMemory(ptr noundef %6)
  %8 = fptosi double %7 to i32
  store i32 %8, ptr %5, align 4, !tbaa !25
  store i32 0, ptr %4, align 4, !tbaa !25
  br label %9

9:                                                ; preds = %25, %1
  %10 = load i32, ptr %4, align 4, !tbaa !25
  %11 = load ptr, ptr %2, align 8, !tbaa !8
  %12 = call i32 @Vec_PtrSize(ptr noundef %11)
  %13 = icmp slt i32 %10, %12
  br i1 %13, label %14, label %18

14:                                               ; preds = %9
  %15 = load ptr, ptr %2, align 8, !tbaa !8
  %16 = load i32, ptr %4, align 4, !tbaa !25
  %17 = call ptr @Vec_PtrEntry(ptr noundef %15, i32 noundef %16)
  store ptr %17, ptr %3, align 8, !tbaa !37
  br label %18

18:                                               ; preds = %14, %9
  %19 = phi i1 [ false, %9 ], [ true, %14 ]
  br i1 %19, label %20, label %28

20:                                               ; preds = %18
  %21 = load ptr, ptr %3, align 8, !tbaa !37
  %22 = call i32 @Psr_NtkMemory(ptr noundef %21)
  %23 = load i32, ptr %5, align 4, !tbaa !25
  %24 = add nsw i32 %23, %22
  store i32 %24, ptr %5, align 4, !tbaa !25
  br label %25

25:                                               ; preds = %20
  %26 = load i32, ptr %4, align 4, !tbaa !25
  %27 = add nsw i32 %26, 1
  store i32 %27, ptr %4, align 4, !tbaa !25
  br label %9, !llvm.loop !38

28:                                               ; preds = %18
  %29 = load ptr, ptr %2, align 8, !tbaa !8
  %30 = call ptr @Psr_ManNameMan(ptr noundef %29)
  %31 = call i32 @Abc_NamMemUsed(ptr noundef %30)
  %32 = load i32, ptr %5, align 4, !tbaa !25
  %33 = add nsw i32 %32, %31
  store i32 %33, ptr %5, align 4, !tbaa !25
  %34 = load i32, ptr %5, align 4, !tbaa !25
  call void @llvm.lifetime.end.p0(i64 4, ptr %5) #11
  call void @llvm.lifetime.end.p0(i64 4, ptr %4) #11
  call void @llvm.lifetime.end.p0(i64 8, ptr %3) #11
  ret i32 %34
}

; Function Attrs: inlinehint nounwind uwtable
define internal ptr @Psr_ManNameMan(ptr noundef %0) #2 {
  %2 = alloca ptr, align 8
  store ptr %0, ptr %2, align 8, !tbaa !8
  %3 = load ptr, ptr %2, align 8, !tbaa !8
  %4 = call ptr @Psr_ManRoot(ptr noundef %3)
  %5 = getelementptr inbounds nuw %struct.Psr_Ntk_t_, ptr %4, i32 0, i32 2
  %6 = load ptr, ptr %5, align 8, !tbaa !35
  ret ptr %6
}

; Function Attrs: inlinehint nounwind uwtable
define internal i32 @Vec_PtrSize(ptr noundef %0) #2 {
  %2 = alloca ptr, align 8
  store ptr %0, ptr %2, align 8, !tbaa !8
  %3 = load ptr, ptr %2, align 8, !tbaa !8
  %4 = getelementptr inbounds nuw %struct.Vec_Ptr_t_, ptr %3, i32 0, i32 1
  %5 = load i32, ptr %4, align 4, !tbaa !33
  ret i32 %5
}

; Function Attrs: inlinehint nounwind uwtable
define internal i64 @Abc_Clock() #2 {
  %1 = alloca i64, align 8
  %2 = alloca %struct.timespec, align 8
  %3 = alloca i32, align 4
  %4 = alloca i64, align 8
  call void @llvm.lifetime.start.p0(i64 16, ptr %2) #11
  %5 = call i32 @clock_gettime(i32 noundef 1, ptr noundef %2) #11
  %6 = icmp slt i32 %5, 0
  br i1 %6, label %7, label %8

7:                                                ; preds = %0
  store i64 -1, ptr %1, align 8
  store i32 1, ptr %3, align 4
  br label %19

8:                                                ; preds = %0
  call void @llvm.lifetime.start.p0(i64 8, ptr %4) #11
  %9 = getelementptr inbounds nuw %struct.timespec, ptr %2, i32 0, i32 0
  %10 = load i64, ptr %9, align 8, !tbaa !67
  %11 = mul nsw i64 %10, 1000000
  store i64 %11, ptr %4, align 8, !tbaa !31
  %12 = getelementptr inbounds nuw %struct.timespec, ptr %2, i32 0, i32 1
  %13 = load i64, ptr %12, align 8, !tbaa !69
  %14 = mul nsw i64 %13, 1000000
  %15 = sdiv i64 %14, 1000000000
  %16 = load i64, ptr %4, align 8, !tbaa !31
  %17 = add nsw i64 %16, %15
  store i64 %17, ptr %4, align 8, !tbaa !31
  %18 = load i64, ptr %4, align 8, !tbaa !31
  store i64 %18, ptr %1, align 8
  store i32 1, ptr %3, align 4
  call void @llvm.lifetime.end.p0(i64 8, ptr %4) #11
  br label %19

19:                                               ; preds = %8, %7
  call void @llvm.lifetime.end.p0(i64 16, ptr %2) #11
  %20 = load i64, ptr %1, align 8
  ret i64 %20
}

; Function Attrs: nounwind uwtable
define void @Psr_ManReadBlifTest() #0 {
  %1 = alloca i64, align 8
  %2 = alloca ptr, align 8
  %3 = alloca i32, align 4
  call void @llvm.lifetime.start.p0(i64 8, ptr %1) #11
  %4 = call i64 @Abc_Clock()
  store i64 %4, ptr %1, align 8, !tbaa !31
  call void @llvm.lifetime.start.p0(i64 8, ptr %2) #11
  %5 = call ptr @Psr_ManReadBlif(ptr noundef @.str)
  store ptr %5, ptr %2, align 8, !tbaa !8
  %6 = load ptr, ptr %2, align 8, !tbaa !8
  %7 = icmp ne ptr %6, null
  br i1 %7, label %9, label %8

8:                                                ; preds = %0
  store i32 1, ptr %3, align 4
  br label %28

9:                                                ; preds = %0
  %10 = load ptr, ptr %2, align 8, !tbaa !8
  %11 = call i32 @Vec_PtrSize(ptr noundef %10)
  %12 = call i32 (ptr, ...) @printf(ptr noundef @.str.1, i32 noundef %11)
  %13 = load ptr, ptr %2, align 8, !tbaa !8
  %14 = call ptr @Psr_ManNameMan(ptr noundef %13)
  %15 = call i32 @Abc_NamObjNumMax(ptr noundef %14)
  %16 = call i32 (ptr, ...) @printf(ptr noundef @.str.2, i32 noundef %15)
  %17 = load ptr, ptr %2, align 8, !tbaa !8
  %18 = call i32 @Psr_ManMemory(ptr noundef %17)
  %19 = sitofp i32 %18 to double
  %20 = fmul double 1.000000e+00, %19
  %21 = fdiv double %20, 0x4130000000000000
  %22 = call i32 (ptr, ...) @printf(ptr noundef @.str.3, double noundef %21)
  %23 = call i64 @Abc_Clock()
  %24 = load i64, ptr %1, align 8, !tbaa !31
  %25 = sub nsw i64 %23, %24
  call void @Abc_PrintTime(i32 noundef 1, ptr noundef @.str.4, i64 noundef %25)
  %26 = load ptr, ptr %2, align 8, !tbaa !8
  call void @Psr_ManWriteBlif(ptr noundef @.str.5, ptr noundef %26)
  %27 = load ptr, ptr %2, align 8, !tbaa !8
  call void @Psr_ManVecFree(ptr noundef %27)
  store i32 0, ptr %3, align 4
  br label %28

28:                                               ; preds = %9, %8
  call void @llvm.lifetime.end.p0(i64 8, ptr %2) #11
  call void @llvm.lifetime.end.p0(i64 8, ptr %1) #11
  %29 = load i32, ptr %3, align 4
  switch i32 %29, label %31 [
    i32 0, label %30
    i32 1, label %30
  ]

30:                                               ; preds = %28, %28
  ret void

31:                                               ; preds = %28
  unreachable
}