; Function Attrs: nounwind uwtable
define void @Psr_ManReadBlifTest() local_unnamed_addr #0 {
  %1 = alloca %struct.timespec, align 8
  %2 = alloca %struct.timespec, align 8
  call void @llvm.lifetime.start.p0(i64 16, ptr nonnull %2) #18
  %3 = call i32 @clock_gettime(i32 noundef 1, ptr noundef nonnull %2) #18
  %4 = icmp slt i32 %3, 0
  br i1 %4, label %Abc_Clock.exit, label %5

5:                                                ; preds = %0
  %6 = load i64, ptr %2, align 8, !tbaa !49
  %.neg8 = mul i64 %6, -1000000
  %7 = getelementptr inbounds nuw i8, ptr %2, i64 8
  %8 = load i64, ptr %7, align 8, !tbaa !52
  %.neg = sdiv i64 %8, -1000
  %.neg9 = add i64 %.neg, %.neg8
  br label %Abc_Clock.exit

Abc_Clock.exit:                                   ; preds = %0, %5
  %.0.i.neg = phi i64 [ %.neg9, %5 ], [ 1, %0 ]
  call void @llvm.lifetime.end.p0(i64 16, ptr nonnull %2) #18
  %9 = call ptr @Psr_ManReadBlif(ptr noundef nonnull @.str)
  %.not = icmp eq ptr %9, null
  br i1 %.not, label %144, label %10

10:                                               ; preds = %Abc_Clock.exit
  %11 = getelementptr i8, ptr %9, i64 4
  %.val = load i32, ptr %11, align 4, !tbaa !21
  %12 = call i32 (ptr, ...) @printf(ptr noundef nonnull dereferenceable(1) @.str.1, i32 noundef %.val)
  %.val.i.i.i = load i32, ptr %11, align 4, !tbaa !21
  %13 = icmp sgt i32 %.val.i.i.i, 0
  call void @llvm.assume(i1 %13)
  %14 = getelementptr i8, ptr %9, i64 8
  %.val4.i.i.i = load ptr, ptr %14, align 8, !tbaa !24
  %15 = load ptr, ptr %.val4.i.i.i, align 8, !tbaa !44
  %16 = getelementptr inbounds nuw i8, ptr %15, i64 8
  %17 = load ptr, ptr %16, align 8, !tbaa !43
  %18 = call i32 @Abc_NamObjNumMax(ptr noundef %17) #18
  %19 = call i32 (ptr, ...) @printf(ptr noundef nonnull dereferenceable(1) @.str.2, i32 noundef %18)
  %.val12.i = load i32, ptr %9, align 8, !tbaa !23
  %20 = sext i32 %.val12.i to i64
  %21 = uitofp i64 %20 to double
  %22 = call double @llvm.fmuladd.f64(double %21, double 8.000000e+00, double 1.600000e+01)
  %23 = fptosi double %22 to i32
  %.val.i = load i32, ptr %11, align 4, !tbaa !21
  %24 = icmp sgt i32 %.val.i, 0
  br i1 %24, label %.lr.ph.i, label %Psr_ManMemory.exit

.lr.ph.i:                                         ; preds = %10
  %.val11.i = load ptr, ptr %14, align 8, !tbaa !24
  %wide.trip.count.i = zext nneg i32 %.val.i to i64
  br label %25

25:                                               ; preds = %25, %.lr.ph.i
  %indvars.iv.i = phi i64 [ 0, %.lr.ph.i ], [ %indvars.iv.next.i, %25 ]
  %.014.i = phi i32 [ %23, %.lr.ph.i ], [ %123, %25 ]
  %26 = getelementptr inbounds nuw ptr, ptr %.val11.i, i64 %indvars.iv.i
  %27 = load ptr, ptr %26, align 8, !tbaa !44
  %28 = getelementptr inbounds nuw i8, ptr %27, i64 16
  %29 = load i32, ptr %28, align 8, !tbaa !45
  %30 = sext i32 %29 to i64
  %31 = uitofp i64 %30 to double
  %32 = call double @llvm.fmuladd.f64(double %31, double 4.000000e+00, double 1.600000e+01)
  %33 = fadd double %32, 2.240000e+02
  %34 = fptosi double %33 to i32
  %35 = getelementptr inbounds nuw i8, ptr %27, i64 32
  %36 = load i32, ptr %35, align 8, !tbaa !45
  %37 = sext i32 %36 to i64
  %38 = uitofp i64 %37 to double
  %39 = call double @llvm.fmuladd.f64(double %38, double 4.000000e+00, double 1.600000e+01)
  %40 = sitofp i32 %34 to double
  %41 = fadd double %39, %40
  %42 = fptosi double %41 to i32
  %43 = getelementptr inbounds nuw i8, ptr %27, i64 48
  %44 = load i32, ptr %43, align 8, !tbaa !45
  %45 = sext i32 %44 to i64
  %46 = uitofp i64 %45 to double
  %47 = call double @llvm.fmuladd.f64(double %46, double 4.000000e+00, double 1.600000e+01)
  %48 = sitofp i32 %42 to double
  %49 = fadd double %47, %48
  %50 = fptosi double %49 to i32
  %51 = getelementptr inbounds nuw i8, ptr %27, i64 64
  %52 = load i32, ptr %51, align 8, !tbaa !45
  %53 = sext i32 %52 to i64
  %54 = uitofp i64 %53 to double
  %55 = call double @llvm.fmuladd.f64(double %54, double 4.000000e+00, double 1.600000e+01)
  %56 = sitofp i32 %50 to double
  %57 = fadd double %55, %56
  %58 = fptosi double %57 to i32
  %59 = getelementptr inbounds nuw i8, ptr %27, i64 80
  %60 = load i32, ptr %59, align 8, !tbaa !45
  %61 = sext i32 %60 to i64
  %62 = uitofp i64 %61 to double
  %63 = call double @llvm.fmuladd.f64(double %62, double 4.000000e+00, double 1.600000e+01)
  %64 = sitofp i32 %58 to double
  %65 = fadd double %63, %64
  %66 = fptosi double %65 to i32
  %67 = getelementptr inbounds nuw i8, ptr %27, i64 96
  %68 = load i32, ptr %67, align 8, !tbaa !45
  %69 = sext i32 %68 to i64
  %70 = uitofp i64 %69 to double
  %71 = call double @llvm.fmuladd.f64(double %70, double 4.000000e+00, double 1.600000e+01)
  %72 = sitofp i32 %66 to double
  %73 = fadd double %71, %72
  %74 = fptosi double %73 to i32
  %75 = getelementptr inbounds nuw i8, ptr %27, i64 112
  %76 = load i32, ptr %75, align 8, !tbaa !45
  %77 = sext i32 %76 to i64
  %78 = uitofp i64 %77 to double
  %79 = call double @llvm.fmuladd.f64(double %78, double 4.000000e+00, double 1.600000e+01)
  %80 = sitofp i32 %74 to double
  %81 = fadd double %79, %80
  %82 = fptosi double %81 to i32
  %83 = getelementptr inbounds nuw i8, ptr %27, i64 128
  %84 = load i32, ptr %83, align 8, !tbaa !45
  %85 = sext i32 %84 to i64
  %86 = uitofp i64 %85 to double
  %87 = call double @llvm.fmuladd.f64(double %86, double 4.000000e+00, double 1.600000e+01)
  %88 = sitofp i32 %82 to double
  %89 = fadd double %87, %88
  %90 = fptosi double %89 to i32
  %91 = getelementptr inbounds nuw i8, ptr %27, i64 144
  %92 = load i32, ptr %91, align 8, !tbaa !45
  %93 = sext i32 %92 to i64
  %94 = uitofp i64 %93 to double
  %95 = call double @llvm.fmuladd.f64(double %94, double 4.000000e+00, double 1.600000e+01)
  %96 = sitofp i32 %90 to double
  %97 = fadd double %95, %96
  %98 = fptosi double %97 to i32
  %99 = getelementptr inbounds nuw i8, ptr %27, i64 160
  %100 = load i32, ptr %99, align 8, !tbaa !45
  %101 = sext i32 %100 to i64
  %102 = uitofp i64 %101 to double
  %103 = call double @llvm.fmuladd.f64(double %102, double 4.000000e+00, double 1.600000e+01)
  %104 = sitofp i32 %98 to double
  %105 = fadd double %103, %104
  %106 = fptosi double %105 to i32
  %107 = getelementptr inbounds nuw i8, ptr %27, i64 192
  %108 = load i32, ptr %107, align 8, !tbaa !45
  %109 = sext i32 %108 to i64
  %110 = uitofp i64 %109 to double
  %111 = call double @llvm.fmuladd.f64(double %110, double 4.000000e+00, double 1.600000e+01)
  %112 = sitofp i32 %106 to double
  %113 = fadd double %111, %112
  %114 = fptosi double %113 to i32
  %115 = getelementptr inbounds nuw i8, ptr %27, i64 176
  %116 = load i32, ptr %115, align 8, !tbaa !45
  %117 = sext i32 %116 to i64
  %118 = uitofp i64 %117 to double
  %119 = call double @llvm.fmuladd.f64(double %118, double 4.000000e+00, double 1.600000e+01)
  %120 = sitofp i32 %114 to double
  %121 = fadd double %119, %120
  %122 = fptosi double %121 to i32
  %123 = add nsw i32 %.014.i, %122
  %indvars.iv.next.i = add nuw nsw i64 %indvars.iv.i, 1
  %exitcond.not.i = icmp eq i64 %indvars.iv.next.i, %wide.trip.count.i
  br i1 %exitcond.not.i, label %Psr_ManMemory.exit, label %25, !llvm.loop !53

Psr_ManMemory.exit:                               ; preds = %25, %10
  %.0.lcssa.i = phi i32 [ %23, %10 ], [ %123, %25 ]
  call void @llvm.assume(i1 %24)
  %.val4.i.i.i.i = load ptr, ptr %14, align 8, !tbaa !24
  %124 = load ptr, ptr %.val4.i.i.i.i, align 8, !tbaa !44
  %125 = getelementptr inbounds nuw i8, ptr %124, i64 8
  %126 = load ptr, ptr %125, align 8, !tbaa !43
  %127 = call i32 @Abc_NamMemUsed(ptr noundef %126) #18
  %128 = add nsw i32 %127, %.0.lcssa.i
  %129 = sitofp i32 %128 to double
  %130 = fmul double %129, 0x3EB0000000000000
  %131 = call i32 (ptr, ...) @printf(ptr noundef nonnull dereferenceable(1) @.str.3, double noundef %130)
  call void @llvm.lifetime.start.p0(i64 16, ptr nonnull %1) #18
  %132 = call i32 @clock_gettime(i32 noundef 1, ptr noundef nonnull %1) #18
  %133 = icmp slt i32 %132, 0
  br i1 %133, label %Abc_Clock.exit7, label %134

134:                                              ; preds = %Psr_ManMemory.exit
  %135 = load i64, ptr %1, align 8, !tbaa !49
  %136 = mul nsw i64 %135, 1000000
  %137 = getelementptr inbounds nuw i8, ptr %1, i64 8
  %138 = load i64, ptr %137, align 8, !tbaa !52
  %139 = sdiv i64 %138, 1000
  %140 = add nsw i64 %139, %136
  br label %Abc_Clock.exit7

Abc_Clock.exit7:                                  ; preds = %Psr_ManMemory.exit, %134
  %.0.i6 = phi i64 [ %140, %134 ], [ -1, %Psr_ManMemory.exit ]
  call void @llvm.lifetime.end.p0(i64 16, ptr nonnull %1) #18
  %141 = add i64 %.0.i6, %.0.i.neg
  call void (i32, ptr, ...) @Abc_Print(i32 poison, ptr noundef nonnull @.str.55, ptr noundef nonnull @.str.4)
  %142 = sitofp i64 %141 to double
  %143 = fdiv double %142, 1.000000e+06
  call void (i32, ptr, ...) @Abc_Print(i32 poison, ptr noundef nonnull @.str.56, double noundef %143)
  call void @Psr_ManWriteBlif(ptr noundef nonnull @.str.5, ptr noundef nonnull %9) #18
  call fastcc void @Psr_ManVecFree(ptr noundef %9)
  br label %144

144:                                              ; preds = %Abc_Clock.exit, %Abc_Clock.exit7
  ret void
}